target datalayout = "e-m:e-p270:32:32-p271:32:32-p272:64:64-i64:64-i128:128-f80:128-n8:16:32:64-S128"
target triple = "x86_64-pc-linux-gnu"

%"class.net::QuicCryptoClientStream" = type <{ %"class.net::QuicCryptoClientStreamBase", i32, i32, ptr, %"class.std::__cxx11::basic_string", %"class.net::QuicServerId", i64, i8, i8, [6 x i8], ptr, %"class.std::unique_ptr.59", %"class.std::unique_ptr.67", ptr, ptr, i8, [7 x i8], %"class.std::__cxx11::basic_string", %"class.std::unique_ptr.75", i8, [7 x i8], %"class.base::TimeTicks", i32, [4 x i8] }>
%"class.net::QuicCryptoClientStreamBase" = type { %"class.net::QuicCryptoStream" }
%"class.net::QuicCryptoStream" = type { %"class.net::ReliableQuicStream.base", %"class.net::CryptoFramerVisitorInterface", i8, i8, [6 x i8], %"struct.net::QuicCryptoNegotiatedParameters", %"class.net::CryptoFramer" }
%"class.net::ReliableQuicStream.base" = type <{ ptr, %"class.std::__cxx11::list", i64, %"class.net::QuicStreamSequencer", i32, [4 x i8], ptr, i64, i64, i32, i32, i8, i8, i8, i8, i8, i8, i8, i8, i32, [4 x i8], %"class.net::QuicFlowController", ptr, i8 }>
%"class.std::__cxx11::list" = type { %"class.std::__cxx11::_List_base" }
%"class.std::__cxx11::_List_base" = type { %"struct.std::__cxx11::_List_base<net::ReliableQuicStream::PendingData, std::allocator<net::ReliableQuicStream::PendingData>>::_List_impl" }
%"struct.std::__cxx11::_List_base<net::ReliableQuicStream::PendingData, std::allocator<net::ReliableQuicStream::PendingData>>::_List_impl" = type { %"struct.std::__detail::_List_node_header" }
%"struct.std::__detail::_List_node_header" = type { %"struct.std::__detail::_List_node_base", i64 }
%"struct.std::__detail::_List_node_base" = type { ptr, ptr }
%"class.net::QuicStreamSequencer" = type <{ ptr, ptr, %"class.net::QuicStreamSequencerBuffer", i64, i8, [3 x i8], i32, i32, [4 x i8], ptr, i8, [7 x i8] }>
%"class.net::QuicStreamSequencerBuffer" = type { i64, i64, i64, %"class.std::__cxx11::list.0", i8, %"class.std::unique_ptr", i64, %"class.std::map" }
%"class.std::__cxx11::list.0" = type { %"class.std::__cxx11::_List_base.1" }
%"class.std::__cxx11::_List_base.1" = type { %"struct.std::__cxx11::_List_base<net::QuicStreamSequencerBuffer::Gap, std::allocator<net::QuicStreamSequencerBuffer::Gap>>::_List_impl" }
%"struct.std::__cxx11::_List_base<net::QuicStreamSequencerBuffer::Gap, std::allocator<net::QuicStreamSequencerBuffer::Gap>>::_List_impl" = type { %"struct.std::__detail::_List_node_header" }
%"class.std::unique_ptr" = type { %"struct.std::__uniq_ptr_data" }
%"struct.std::__uniq_ptr_data" = type { %"class.std::__uniq_ptr_impl" }
%"class.std::__uniq_ptr_impl" = type { %"class.std::tuple" }
%"class.std::tuple" = type { %"struct.std::_Tuple_impl" }
%"struct.std::_Tuple_impl" = type { %"struct.std::_Head_base.6" }
%"struct.std::_Head_base.6" = type { ptr }
%"class.std::map" = type { %"class.std::_Rb_tree" }
%"class.std::_Rb_tree" = type { %"struct.std::_Rb_tree<unsigned long, std::pair<const unsigned long, net::QuicStreamSequencerBuffer::FrameInfo>, std::_Select1st<std::pair<const unsigned long, net::QuicStreamSequencerBuffer::FrameInfo>>, std::less<unsigned long>>::_Rb_tree_impl" }
%"struct.std::_Rb_tree<unsigned long, std::pair<const unsigned long, net::QuicStreamSequencerBuffer::FrameInfo>, std::_Select1st<std::pair<const unsigned long, net::QuicStreamSequencerBuffer::FrameInfo>>, std::less<unsigned long>>::_Rb_tree_impl" = type { [8 x i8], %"struct.std::_Rb_tree_header" }
%"struct.std::_Rb_tree_header" = type { %"struct.std::_Rb_tree_node_base", i64 }
%"struct.std::_Rb_tree_node_base" = type { i32, ptr, ptr, ptr }
%"class.net::QuicFlowController" = type { ptr, i32, i32, i64, i64, i64, i64, i64, i64, i64, i8, i64, %"class.net::QuicTime" }
%"class.net::QuicTime" = type { i64 }
%"class.net::CryptoFramerVisitorInterface" = type { ptr }
%"struct.net::QuicCryptoNegotiatedParameters" = type <{ i32, i32, %"class.std::__cxx11::basic_string", %"class.std::__cxx11::basic_string", %"class.std::__cxx11::basic_string", %"class.std::__cxx11::basic_string", %"struct.net::CrypterPair", %"struct.net::CrypterPair", %"class.std::__cxx11::basic_string", %"class.std::__cxx11::basic_string", %"class.std::__cxx11::basic_string", %"class.std::__cxx11::basic_string", %"class.std::vector", %"class.std::unique_ptr.32", %"class.std::__cxx11::basic_string", i32, i8, i8, [2 x i8], %"class.std::__cxx11::basic_string", %"class.std::__cxx11::basic_string", i8, [7 x i8] }>
%"struct.net::CrypterPair" = type { %"class.std::unique_ptr.13", %"class.std::unique_ptr.21" }
%"class.std::unique_ptr.13" = type { %"struct.std::__uniq_ptr_data.14" }
%"struct.std::__uniq_ptr_data.14" = type { %"class.std::__uniq_ptr_impl.15" }
%"class.std::__uniq_ptr_impl.15" = type { %"class.std::tuple.16" }
%"class.std::tuple.16" = type { %"struct.std::_Tuple_impl.17" }
%"struct.std::_Tuple_impl.17" = type { %"struct.std::_Head_base.20" }
%"struct.std::_Head_base.20" = type { ptr }
%"class.std::unique_ptr.21" = type { %"struct.std::__uniq_ptr_data.22" }
%"struct.std::__uniq_ptr_data.22" = type { %"class.std::__uniq_ptr_impl.23" }
%"class.std::__uniq_ptr_impl.23" = type { %"class.std::tuple.24" }
%"class.std::tuple.24" = type { %"struct.std::_Tuple_impl.25" }
%"struct.std::_Tuple_impl.25" = type { %"struct.std::_Head_base.28" }
%"struct.std::_Head_base.28" = type { ptr }
%"class.std::vector" = type { %"struct.std::_Vector_base" }
%"struct.std::_Vector_base" = type { %"struct.std::_Vector_base<std::__cxx11::basic_string<char>, std::allocator<std::__cxx11::basic_string<char>>>::_Vector_impl" }
%"struct.std::_Vector_base<std::__cxx11::basic_string<char>, std::allocator<std::__cxx11::basic_string<char>>>::_Vector_impl" = type { %"struct.std::_Vector_base<std::__cxx11::basic_string<char>, std::allocator<std::__cxx11::basic_string<char>>>::_Vector_impl_data" }
%"struct.std::_Vector_base<std::__cxx11::basic_string<char>, std::allocator<std::__cxx11::basic_string<char>>>::_Vector_impl_data" = type { ptr, ptr, ptr }
%"class.std::unique_ptr.32" = type { %"struct.std::__uniq_ptr_data.33" }
%"struct.std::__uniq_ptr_data.33" = type { %"class.std::__uniq_ptr_impl.34" }
%"class.std::__uniq_ptr_impl.34" = type { %"class.std::tuple.35" }
%"class.std::tuple.35" = type { %"struct.std::_Tuple_impl.36" }
%"struct.std::_Tuple_impl.36" = type { %"struct.std::_Head_base.39" }
%"struct.std::_Head_base.39" = type { ptr }
%"class.net::CryptoFramer" = type { ptr, ptr, i32, %"class.std::__cxx11::basic_string", i32, %"class.net::CryptoHandshakeMessage", %"class.std::__cxx11::basic_string", i16, %"class.std::vector.54", i64 }
%"class.net::CryptoHandshakeMessage" = type { i32, %"class.std::map.40", i64, %"class.std::unique_ptr.46" }
%"class.std::map.40" = type { %"class.std::_Rb_tree.41" }
%"class.std::_Rb_tree.41" = type { %"struct.std::_Rb_tree<unsigned int, std::pair<const unsigned int, std::__cxx11::basic_string<char>>, std::_Select1st<std::pair<const unsigned int, std::__cxx11::basic_string<char>>>, std::less<unsigned int>>::_Rb_tree_impl" }
%"struct.std::_Rb_tree<unsigned int, std::pair<const unsigned int, std::__cxx11::basic_string<char>>, std::_Select1st<std::pair<const unsigned int, std::__cxx11::basic_string<char>>>, std::less<unsigned int>>::_Rb_tree_impl" = type { [8 x i8], %"struct.std::_Rb_tree_header" }
%"class.std::unique_ptr.46" = type { %"struct.std::__uniq_ptr_data.47" }
%"struct.std::__uniq_ptr_data.47" = type { %"class.std::__uniq_ptr_impl.48" }
%"class.std::__uniq_ptr_impl.48" = type { %"class.std::tuple.49" }
%"class.std::tuple.49" = type { %"struct.std::_Tuple_impl.50" }
%"struct.std::_Tuple_impl.50" = type { %"struct.std::_Head_base.53" }
%"struct.std::_Head_base.53" = type { ptr }
%"class.std::vector.54" = type { %"struct.std::_Vector_base.55" }
%"struct.std::_Vector_base.55" = type { %"struct.std::_Vector_base<std::pair<unsigned int, unsigned long>, std::allocator<std::pair<unsigned int, unsigned long>>>::_Vector_impl" }
%"struct.std::_Vector_base<std::pair<unsigned int, unsigned long>, std::allocator<std::pair<unsigned int, unsigned long>>>::_Vector_impl" = type { %"struct.std::_Vector_base<std::pair<unsigned int, unsigned long>, std::allocator<std::pair<unsigned int, unsigned long>>>::_Vector_impl_data" }
%"struct.std::_Vector_base<std::pair<unsigned int, unsigned long>, std::allocator<std::pair<unsigned int, unsigned long>>>::_Vector_impl_data" = type { ptr, ptr, ptr }
%"class.net::QuicServerId" = type { %"class.net::HostPortPair", i32, [4 x i8] }
%"class.net::HostPortPair" = type <{ %"class.std::__cxx11::basic_string", i16, [6 x i8] }>
%"class.std::unique_ptr.59" = type { %"struct.std::__uniq_ptr_data.60" }
%"struct.std::__uniq_ptr_data.60" = type { %"class.std::__uniq_ptr_impl.61" }
%"class.std::__uniq_ptr_impl.61" = type { %"class.std::tuple.62" }
%"class.std::tuple.62" = type { %"struct.std::_Tuple_impl.63" }
%"struct.std::_Tuple_impl.63" = type { %"struct.std::_Head_base.66" }
%"struct.std::_Head_base.66" = type { ptr }
%"class.std::unique_ptr.67" = type { %"struct.std::__uniq_ptr_data.68" }
%"struct.std::__uniq_ptr_data.68" = type { %"class.std::__uniq_ptr_impl.69" }
%"class.std::__uniq_ptr_impl.69" = type { %"class.std::tuple.70" }
%"class.std::tuple.70" = type { %"struct.std::_Tuple_impl.71" }
%"struct.std::_Tuple_impl.71" = type { %"struct.std::_Head_base.74" }
%"struct.std::_Head_base.74" = type { ptr }
%"class.std::__cxx11::basic_string" = type { %"struct.std::__cxx11::basic_string<char>::_Alloc_hider", i64, %union.anon }
%"struct.std::__cxx11::basic_string<char>::_Alloc_hider" = type { ptr }
%union.anon = type { i64, [8 x i8] }
%"class.std::unique_ptr.75" = type { %"struct.std::__uniq_ptr_data.76" }
%"struct.std::__uniq_ptr_data.76" = type { %"class.std::__uniq_ptr_impl.77" }
%"class.std::__uniq_ptr_impl.77" = type { %"class.std::tuple.78" }
%"class.std::tuple.78" = type { %"struct.std::_Tuple_impl.79" }
%"struct.std::_Tuple_impl.79" = type { %"struct.std::_Head_base.82" }
%"struct.std::_Head_base.82" = type { ptr }
%"class.base::TimeTicks" = type { %"class.base::time_internal::TimeBase" }
%"class.base::time_internal::TimeBase" = type { i64 }

; Function Attrs: mustprogress nounwind uwtable
define linkonce_odr noundef i32 @_ZNK3net12QuicServerId12privacy_modeEv(ptr noundef nonnull align 8 dereferenceable(44) %0) #2 comdat align 2 {
  %2 = alloca ptr, align 8
  store ptr %0, ptr %2, align 8, !tbaa !179
  %3 = load ptr, ptr %2, align 8
  %4 = getelementptr inbounds nuw %"class.net::QuicServerId", ptr %3, i32 0, i32 1
  %5 = load i32, ptr %4, align 8, !tbaa !190
  ret i32 %5
}

; Function Attrs: mustprogress uwtable
define noundef zeroext i1 @_ZN3net22QuicCryptoClientStream17RequiresChannelIDEPNS_22QuicCryptoClientConfig11CachedStateE(ptr noundef nonnull align 8 dereferenceable(1268) %0, ptr noundef %1) #0 align 2 {
  %3 = alloca i1, align 1
  %4 = alloca ptr, align 8
  %5 = alloca ptr, align 8
  %6 = alloca ptr, align 8
  %7 = alloca i32, align 4
  %8 = alloca ptr, align 8
  %9 = alloca i64, align 8
  %10 = alloca i64, align 8
  store ptr %0, ptr %4, align 8, !tbaa !14
  store ptr %1, ptr %5, align 8, !tbaa !156
  %11 = load ptr, ptr %4, align 8
  %12 = getelementptr inbounds nuw %"class.net::QuicCryptoClientStream", ptr %11, i32 0, i32 5
  %13 = call noundef i32 @_ZNK3net12QuicServerId12privacy_modeEv(ptr noundef nonnull align 8 dereferenceable(44) %12)
  %14 = icmp eq i32 %13, 1
  br i1 %14, label %20, label %15

15:                                               ; preds = %2
  %16 = getelementptr inbounds nuw %"class.net::QuicCryptoClientStream", ptr %11, i32 0, i32 3
  %17 = load ptr, ptr %16, align 8, !tbaa !155
  %18 = call noundef ptr @_ZNK3net22QuicCryptoClientConfig17channel_id_sourceEv(ptr noundef nonnull align 8 dereferenceable(248) %17)
  %19 = icmp ne ptr %18, null
  br i1 %19, label %21, label %20

20:                                               ; preds = %15, %2
  store i1 false, ptr %3, align 1
  br label %54

21:                                               ; preds = %15
  call void @llvm.lifetime.start.p0(i64 8, ptr %6) #19
  %22 = load ptr, ptr %5, align 8, !tbaa !156
  %23 = call noundef ptr @_ZNK3net22QuicCryptoClientConfig11CachedState15GetServerConfigEv(ptr noundef nonnull align 8 dereferenceable(384) %22)
  store ptr %23, ptr %6, align 8, !tbaa !153
  %24 = load ptr, ptr %6, align 8, !tbaa !153
  %25 = icmp ne ptr %24, null
  br i1 %25, label %27, label %26

26:                                               ; preds = %21
  store i1 false, ptr %3, align 1
  store i32 1, ptr %7, align 4
  br label %53

27:                                               ; preds = %21
  call void @llvm.lifetime.start.p0(i64 8, ptr %8) #19
  call void @llvm.lifetime.start.p0(i64 8, ptr %9) #19
  %28 = load ptr, ptr %6, align 8, !tbaa !153
  %29 = call noundef i32 @_ZNK3net22CryptoHandshakeMessage10GetTaglistEjPPKjPm(ptr noundef nonnull align 8 dereferenceable(72) %28, i32 noundef 1145914448, ptr noundef %8, ptr noundef %9)
  %30 = icmp ne i32 %29, 0
  br i1 %30, label %31, label %32

31:                                               ; preds = %27
  store i1 false, ptr %3, align 1
  store i32 1, ptr %7, align 4
  br label %52

32:                                               ; preds = %27
  call void @llvm.lifetime.start.p0(i64 8, ptr %10) #19
  store i64 0, ptr %10, align 8, !tbaa !390
  br label %33

33:                                               ; preds = %46, %32
  %34 = load i64, ptr %10, align 8, !tbaa !390
  %35 = load i64, ptr %9, align 8, !tbaa !390
  %36 = icmp ult i64 %34, %35
  br i1 %36, label %38, label %37

37:                                               ; preds = %33
  store i32 2, ptr %7, align 4
  br label %49

38:                                               ; preds = %33
  %39 = load ptr, ptr %8, align 8, !tbaa !395
  %40 = load i64, ptr %10, align 8, !tbaa !390
  %41 = getelementptr inbounds nuw i32, ptr %39, i64 %40
  %42 = load i32, ptr %41, align 4, !tbaa !394
  %43 = icmp eq i32 %42, 1145653315
  br i1 %43, label %44, label %45

44:                                               ; preds = %38
  store i1 true, ptr %3, align 1
  store i32 1, ptr %7, align 4
  br label %49

45:                                               ; preds = %38
  br label %46

46:                                               ; preds = %45
  %47 = load i64, ptr %10, align 8, !tbaa !390
  %48 = add i64 %47, 1
  store i64 %48, ptr %10, align 8, !tbaa !390
  br label %33, !llvm.loop !424

49:                                               ; preds = %44, %37
  call void @llvm.lifetime.end.p0(i64 8, ptr %10) #19
  %50 = load i32, ptr %7, align 4
  switch i32 %50, label %52 [
    i32 2, label %51
  ]

51:                                               ; preds = %49
  store i1 false, ptr %3, align 1
  store i32 1, ptr %7, align 4
  br label %52

52:                                               ; preds = %51, %49, %31
  call void @llvm.lifetime.end.p0(i64 8, ptr %9) #19
  call void @llvm.lifetime.end.p0(i64 8, ptr %8) #19
  br label %53

53:                                               ; preds = %52, %26
  call void @llvm.lifetime.end.p0(i64 8, ptr %6) #19
  br label %54

54:                                               ; preds = %53, %20
  %55 = load i1, ptr %3, align 1
  ret i1 %55
}