; Function Attrs: mustprogress uwtable
define noundef zeroext i1 @_ZN3net22QuicCryptoClientStream17RequiresChannelIDEPNS_22QuicCryptoClientConfig11CachedStateE(ptr noundef nonnull readonly align 8 captures(none) dereferenceable(1268) %0, ptr noundef %1) local_unnamed_addr #0 align 2 {
  %3 = alloca ptr, align 8
  %4 = alloca i64, align 8
  %5 = getelementptr inbounds nuw i8, ptr %0, i64 1136
  %6 = load i32, ptr %5, align 8, !tbaa !162
  %7 = icmp eq i32 %6, 1
  br i1 %7, label %23, label %8

8:                                                ; preds = %2
  %9 = getelementptr inbounds nuw i8, ptr %0, i64 1056
  %10 = load ptr, ptr %9, align 8, !tbaa !144
  %11 = tail call noundef ptr @_ZNK3net22QuicCryptoClientConfig17channel_id_sourceEv(ptr noundef nonnull align 8 dereferenceable(248) %10)
  %.not = icmp eq ptr %11, null
  br i1 %.not, label %23, label %12

12:                                               ; preds = %8
  %13 = tail call noundef ptr @_ZNK3net22QuicCryptoClientConfig11CachedState15GetServerConfigEv(ptr noundef nonnull align 8 dereferenceable(384) %1)
  %.not11 = icmp eq ptr %13, null
  br i1 %.not11, label %23, label %14

14:                                               ; preds = %12
  call void @llvm.lifetime.start.p0(i64 8, ptr nonnull %3) #21
  call void @llvm.lifetime.start.p0(i64 8, ptr nonnull %4) #21
  %15 = call noundef i32 @_ZNK3net22CryptoHandshakeMessage10GetTaglistEjPPKjPm(ptr noundef nonnull align 8 dereferenceable(72) %13, i32 noundef 1145914448, ptr noundef nonnull %3, ptr noundef nonnull %4)
  %.not12 = icmp eq i32 %15, 0
  br i1 %.not12, label %.preheader, label %.loopexit

.preheader:                                       ; preds = %14
  %16 = load i64, ptr %4, align 8, !tbaa !149
  %.not1314.not = icmp eq i64 %16, 0
  br i1 %.not1314.not, label %.loopexit, label %.lr.ph

.lr.ph:                                           ; preds = %.preheader
  %17 = load ptr, ptr %3, align 8, !tbaa !351
  br label %18

18:                                               ; preds = %18, %.lr.ph
  %.015 = phi i64 [ 0, %.lr.ph ], [ %22, %18 ]
  %19 = getelementptr inbounds nuw i32, ptr %17, i64 %.015
  %20 = load i32, ptr %19, align 4, !tbaa !352
  %21 = icmp eq i32 %20, 1145653315
  %22 = add nuw i64 %.015, 1
  %exitcond.not = icmp eq i64 %22, %16
  %or.cond = select i1 %21, i1 true, i1 %exitcond.not
  br i1 %or.cond, label %.loopexit, label %18, !llvm.loop !359

.loopexit:                                        ; preds = %18, %.preheader, %14
  %.2 = phi i1 [ false, %14 ], [ false, %.preheader ], [ %21, %18 ]
  call void @llvm.lifetime.end.p0(i64 8, ptr nonnull %4) #21
  call void @llvm.lifetime.end.p0(i64 8, ptr nonnull %3) #21
  br label %23

23:                                               ; preds = %.loopexit, %12, %2, %8
  %.09 = phi i1 [ false, %8 ], [ false, %2 ], [ %.2, %.loopexit ], [ false, %12 ]
  ret i1 %.09
}